target datalayout = "e-m:e-p270:32:32-p271:32:32-p272:64:64-i64:64-i128:128-f80:128-n8:16:32:64-S128"
target triple = "x86_64-pc-linux-gnu"

%struct.FunctionCallInfoBaseData = type { ptr, ptr, ptr, i32, i8, i16, [0 x %struct.NullableDatum] }
%struct.NullableDatum = type { i64, i8 }

; Function Attrs: inlinehint nounwind uwtable
define internal i64 @ObjectIdGetDatum(i32 noundef %0) #2 {
  %2 = alloca i32, align 4
  store i32 %0, ptr %2, align 4
  %3 = load i32, ptr %2, align 4
  %4 = zext i32 %3 to i64
  ret i64 %4
}

; Function Attrs: inlinehint nounwind uwtable
define internal i32 @DatumGetObjectId(i64 noundef %0) #2 {
  %2 = alloca i64, align 8
  store i64 %0, ptr %2, align 8
  %3 = load i64, ptr %2, align 8
  %4 = trunc i64 %3 to i32
  ret i32 %4
}

; Function Attrs: nounwind uwtable
define dso_local i64 @pg_filenode_relation(ptr noundef %0) #0 {
  %2 = alloca i64, align 8
  %3 = alloca ptr, align 8
  %4 = alloca i32, align 4
  %5 = alloca i32, align 4
  %6 = alloca i32, align 4
  %7 = alloca i32, align 4
  store ptr %0, ptr %3, align 8
  call void @llvm.lifetime.start.p0(i64 4, ptr %4) #10
  %8 = load ptr, ptr %3, align 8
  %9 = getelementptr inbounds nuw %struct.FunctionCallInfoBaseData, ptr %8, i32 0, i32 6
  %10 = getelementptr inbounds [0 x %struct.NullableDatum], ptr %9, i64 0, i64 0
  %11 = getelementptr inbounds nuw %struct.NullableDatum, ptr %10, i32 0, i32 0
  %12 = load i64, ptr %11, align 8
  %13 = call i32 @DatumGetObjectId(i64 noundef %12)
  store i32 %13, ptr %4, align 4
  call void @llvm.lifetime.start.p0(i64 4, ptr %5) #10
  %14 = load ptr, ptr %3, align 8
  %15 = getelementptr inbounds nuw %struct.FunctionCallInfoBaseData, ptr %14, i32 0, i32 6
  %16 = getelementptr inbounds [0 x %struct.NullableDatum], ptr %15, i64 0, i64 1
  %17 = getelementptr inbounds nuw %struct.NullableDatum, ptr %16, i32 0, i32 0
  %18 = load i64, ptr %17, align 8
  %19 = call i32 @DatumGetObjectId(i64 noundef %18)
  store i32 %19, ptr %5, align 4
  call void @llvm.lifetime.start.p0(i64 4, ptr %6) #10
  %20 = load i32, ptr %5, align 4
  %21 = icmp ne i32 %20, 0
  br i1 %21, label %28, label %22

22:                                               ; preds = %1
  br label %23

23:                                               ; preds = %22
  %24 = load ptr, ptr %3, align 8
  %25 = getelementptr inbounds nuw %struct.FunctionCallInfoBaseData, ptr %24, i32 0, i32 4
  store i8 1, ptr %25, align 4
  store i64 0, ptr %2, align 8
  store i32 1, ptr %7, align 4
  br label %44

26:                                               ; No predecessors!
  br label %27

27:                                               ; preds = %26
  br label %28

28:                                               ; preds = %27, %1
  %29 = load i32, ptr %4, align 4
  %30 = load i32, ptr %5, align 4
  %31 = call i32 @RelidByRelfilenumber(i32 noundef %29, i32 noundef %30)
  store i32 %31, ptr %6, align 4
  %32 = load i32, ptr %6, align 4
  %33 = icmp ne i32 %32, 0
  br i1 %33, label %40, label %34

34:                                               ; preds = %28
  br label %35

35:                                               ; preds = %34
  %36 = load ptr, ptr %3, align 8
  %37 = getelementptr inbounds nuw %struct.FunctionCallInfoBaseData, ptr %36, i32 0, i32 4
  store i8 1, ptr %37, align 4
  store i64 0, ptr %2, align 8
  store i32 1, ptr %7, align 4
  br label %44

38:                                               ; No predecessors!
  br label %39

39:                                               ; preds = %38
  br label %43

40:                                               ; preds = %28
  %41 = load i32, ptr %6, align 4
  %42 = call i64 @ObjectIdGetDatum(i32 noundef %41)
  store i64 %42, ptr %2, align 8
  store i32 1, ptr %7, align 4
  br label %44

43:                                               ; preds = %39
  store i32 0, ptr %7, align 4
  br label %44

44:                                               ; preds = %43, %40, %35, %23
  call void @llvm.lifetime.end.p0(i64 4, ptr %6) #10
  call void @llvm.lifetime.end.p0(i64 4, ptr %5) #10
  call void @llvm.lifetime.end.p0(i64 4, ptr %4) #10
  %45 = load i32, ptr %7, align 4
  switch i32 %45, label %48 [
    i32 0, label %46
    i32 1, label %46
  ]

46:                                               ; preds = %44, %44
  %47 = load i64, ptr %2, align 8
  ret i64 %47

48:                                               ; preds = %44
  unreachable
}