; Function Attrs: nounwind uwtable
define dso_local range(i64 0, 4294967296) i64 @pg_filenode_relation(ptr noundef captures(none) %0) local_unnamed_addr #0 {
  %2 = getelementptr inbounds nuw i8, ptr %0, i64 48
  %3 = load i64, ptr %2, align 8
  %4 = trunc i64 %3 to i32
  %.not = icmp eq i32 %4, 0
  br i1 %.not, label %5, label %7

5:                                                ; preds = %1
  %6 = getelementptr inbounds nuw i8, ptr %0, i64 28
  store i8 1, ptr %6, align 4
  br label %16

7:                                                ; preds = %1
  %8 = getelementptr inbounds nuw i8, ptr %0, i64 32
  %9 = load i64, ptr %8, align 8
  %10 = trunc i64 %9 to i32
  %11 = tail call i32 @RelidByRelfilenumber(i32 noundef %10, i32 noundef %4) #9
  %.not11 = icmp eq i32 %11, 0
  br i1 %.not11, label %12, label %14

12:                                               ; preds = %7
  %13 = getelementptr inbounds nuw i8, ptr %0, i64 28
  store i8 1, ptr %13, align 4
  br label %16

14:                                               ; preds = %7
  %15 = zext i32 %11 to i64
  br label %16

16:                                               ; preds = %14, %12, %5
  %.0 = phi i64 [ %15, %14 ], [ 0, %12 ], [ 0, %5 ]
  ret i64 %.0
}